; Function Attrs: nounwind uwtable
define internal range(i32 0, 161) i32 @cff_parse_vsindex(ptr nocapture noundef readonly %0) #4 {
  %2 = getelementptr inbounds i8, ptr %0, i64 56
  %3 = load ptr, ptr %2, align 8
  %4 = getelementptr inbounds i8, ptr %0, i64 32
  %5 = load ptr, ptr %4, align 8
  %.not = icmp eq ptr %3, null
  br i1 %.not, label %16, label %6

6:                                                ; preds = %1
  %7 = getelementptr inbounds i8, ptr %3, i64 720
  %8 = load ptr, ptr %7, align 8
  %.not11 = icmp eq ptr %8, null
  br i1 %.not11, label %16, label %9

9:                                                ; preds = %6
  %10 = getelementptr inbounds i8, ptr %8, i64 1057
  %11 = load i8, ptr %10, align 1
  %.not12 = icmp eq i8 %11, 0
  br i1 %.not12, label %12, label %16

12:                                               ; preds = %9
  %.val = load ptr, ptr %5, align 8
  %13 = tail call fastcc i64 @cff_parse_num(ptr noundef nonnull %0, ptr %.val)
  %14 = trunc i64 %13 to i32
  %15 = getelementptr inbounds i8, ptr %3, i64 712
  store i32 %14, ptr %15, align 8
  br label %16

16:                                               ; preds = %9, %1, %6, %12
  %.0 = phi i32 [ 0, %12 ], [ 3, %6 ], [ 3, %1 ], [ 160, %9 ]
  ret i32 %.0
}